target datalayout = "e-m:e-p270:32:32-p271:32:32-p272:64:64-i64:64-i128:128-f80:128-n8:16:32:64-S128"
target triple = "x86_64-pc-linux-gnu"

%struct.SN_env = type { ptr, i32, i32, i32, i32, i32, ptr, ptr }

; Function Attrs: nounwind uwtable
define internal i32 @r_consonant_pair(ptr noundef %0) #0 {
  %2 = alloca i32, align 4
  %3 = alloca ptr, align 8
  %4 = alloca i32, align 4
  %5 = alloca i32, align 4
  %6 = alloca i32, align 4
  %7 = alloca i32, align 4
  %8 = alloca i32, align 4
  store ptr %0, ptr %3, align 8
  call void @llvm.lifetime.start.p0(i64 4, ptr %4) #3
  %9 = load ptr, ptr %3, align 8
  %10 = getelementptr inbounds nuw %struct.SN_env, ptr %9, i32 0, i32 2
  %11 = load i32, ptr %10, align 4
  %12 = load ptr, ptr %3, align 8
  %13 = getelementptr inbounds nuw %struct.SN_env, ptr %12, i32 0, i32 1
  %14 = load i32, ptr %13, align 8
  %15 = sub i32 %11, %14
  store i32 %15, ptr %4, align 4
  call void @llvm.lifetime.start.p0(i64 4, ptr %5) #3
  %16 = load ptr, ptr %3, align 8
  %17 = getelementptr inbounds nuw %struct.SN_env, ptr %16, i32 0, i32 1
  %18 = load i32, ptr %17, align 8
  %19 = load ptr, ptr %3, align 8
  %20 = getelementptr inbounds nuw %struct.SN_env, ptr %19, i32 0, i32 7
  %21 = load ptr, ptr %20, align 8
  %22 = getelementptr inbounds i32, ptr %21, i64 1
  %23 = load i32, ptr %22, align 4
  %24 = icmp slt i32 %18, %23
  br i1 %24, label %25, label %26

25:                                               ; preds = %1
  store i32 0, ptr %2, align 4
  store i32 1, ptr %6, align 4
  br label %97

26:                                               ; preds = %1
  %27 = load ptr, ptr %3, align 8
  %28 = getelementptr inbounds nuw %struct.SN_env, ptr %27, i32 0, i32 3
  %29 = load i32, ptr %28, align 8
  store i32 %29, ptr %5, align 4
  %30 = load ptr, ptr %3, align 8
  %31 = getelementptr inbounds nuw %struct.SN_env, ptr %30, i32 0, i32 7
  %32 = load ptr, ptr %31, align 8
  %33 = getelementptr inbounds i32, ptr %32, i64 1
  %34 = load i32, ptr %33, align 4
  %35 = load ptr, ptr %3, align 8
  %36 = getelementptr inbounds nuw %struct.SN_env, ptr %35, i32 0, i32 3
  store i32 %34, ptr %36, align 8
  %37 = load ptr, ptr %3, align 8
  %38 = getelementptr inbounds nuw %struct.SN_env, ptr %37, i32 0, i32 1
  %39 = load i32, ptr %38, align 8
  %40 = load ptr, ptr %3, align 8
  %41 = getelementptr inbounds nuw %struct.SN_env, ptr %40, i32 0, i32 5
  store i32 %39, ptr %41, align 8
  %42 = load ptr, ptr %3, align 8
  %43 = getelementptr inbounds nuw %struct.SN_env, ptr %42, i32 0, i32 1
  %44 = load i32, ptr %43, align 8
  %45 = sub i32 %44, 1
  %46 = load ptr, ptr %3, align 8
  %47 = getelementptr inbounds nuw %struct.SN_env, ptr %46, i32 0, i32 3
  %48 = load i32, ptr %47, align 8
  %49 = icmp sle i32 %45, %48
  br i1 %49, label %76, label %50

50:                                               ; preds = %26
  %51 = load ptr, ptr %3, align 8
  %52 = getelementptr inbounds nuw %struct.SN_env, ptr %51, i32 0, i32 0
  %53 = load ptr, ptr %52, align 8
  %54 = load ptr, ptr %3, align 8
  %55 = getelementptr inbounds nuw %struct.SN_env, ptr %54, i32 0, i32 1
  %56 = load i32, ptr %55, align 8
  %57 = sub i32 %56, 1
  %58 = sext i32 %57 to i64
  %59 = getelementptr inbounds i8, ptr %53, i64 %58
  %60 = load i8, ptr %59, align 1
  %61 = zext i8 %60 to i32
  %62 = icmp ne i32 %61, 100
  br i1 %62, label %63, label %80

63:                                               ; preds = %50
  %64 = load ptr, ptr %3, align 8
  %65 = getelementptr inbounds nuw %struct.SN_env, ptr %64, i32 0, i32 0
  %66 = load ptr, ptr %65, align 8
  %67 = load ptr, ptr %3, align 8
  %68 = getelementptr inbounds nuw %struct.SN_env, ptr %67, i32 0, i32 1
  %69 = load i32, ptr %68, align 8
  %70 = sub i32 %69, 1
  %71 = sext i32 %70 to i64
  %72 = getelementptr inbounds i8, ptr %66, i64 %71
  %73 = load i8, ptr %72, align 1
  %74 = zext i8 %73 to i32
  %75 = icmp ne i32 %74, 116
  br i1 %75, label %76, label %80

76:                                               ; preds = %63, %26
  %77 = load i32, ptr %5, align 4
  %78 = load ptr, ptr %3, align 8
  %79 = getelementptr inbounds nuw %struct.SN_env, ptr %78, i32 0, i32 3
  store i32 %77, ptr %79, align 8
  store i32 0, ptr %2, align 4
  store i32 1, ptr %6, align 4
  br label %97

80:                                               ; preds = %63, %50
  %81 = load ptr, ptr %3, align 8
  %82 = call i32 @find_among_b(ptr noundef %81, ptr noundef @a_1, i32 noundef 4)
  %83 = icmp ne i32 %82, 0
  br i1 %83, label %88, label %84

84:                                               ; preds = %80
  %85 = load i32, ptr %5, align 4
  %86 = load ptr, ptr %3, align 8
  %87 = getelementptr inbounds nuw %struct.SN_env, ptr %86, i32 0, i32 3
  store i32 %85, ptr %87, align 8
  store i32 0, ptr %2, align 4
  store i32 1, ptr %6, align 4
  br label %97

88:                                               ; preds = %80
  %89 = load ptr, ptr %3, align 8
  %90 = getelementptr inbounds nuw %struct.SN_env, ptr %89, i32 0, i32 1
  %91 = load i32, ptr %90, align 8
  %92 = load ptr, ptr %3, align 8
  %93 = getelementptr inbounds nuw %struct.SN_env, ptr %92, i32 0, i32 4
  store i32 %91, ptr %93, align 4
  %94 = load i32, ptr %5, align 4
  %95 = load ptr, ptr %3, align 8
  %96 = getelementptr inbounds nuw %struct.SN_env, ptr %95, i32 0, i32 3
  store i32 %94, ptr %96, align 8
  store i32 0, ptr %6, align 4
  br label %97

97:                                               ; preds = %88, %84, %76, %25
  call void @llvm.lifetime.end.p0(i64 4, ptr %5) #3
  %98 = load i32, ptr %6, align 4
  switch i32 %98, label %107 [
    i32 0, label %99
  ]

99:                                               ; preds = %97
  %100 = load ptr, ptr %3, align 8
  %101 = getelementptr inbounds nuw %struct.SN_env, ptr %100, i32 0, i32 2
  %102 = load i32, ptr %101, align 4
  %103 = load i32, ptr %4, align 4
  %104 = sub i32 %102, %103
  %105 = load ptr, ptr %3, align 8
  %106 = getelementptr inbounds nuw %struct.SN_env, ptr %105, i32 0, i32 1
  store i32 %104, ptr %106, align 8
  store i32 0, ptr %6, align 4
  br label %107

107:                                              ; preds = %99, %97
  call void @llvm.lifetime.end.p0(i64 4, ptr %4) #3
  %108 = load i32, ptr %6, align 4
  switch i32 %108, label %147 [
    i32 0, label %109
    i32 1, label %145
  ]

109:                                              ; preds = %107
  call void @llvm.lifetime.start.p0(i64 4, ptr %7) #3
  %110 = load ptr, ptr %3, align 8
  %111 = getelementptr inbounds nuw %struct.SN_env, ptr %110, i32 0, i32 0
  %112 = load ptr, ptr %111, align 8
  %113 = load ptr, ptr %3, align 8
  %114 = getelementptr inbounds nuw %struct.SN_env, ptr %113, i32 0, i32 1
  %115 = load i32, ptr %114, align 8
  %116 = load ptr, ptr %3, align 8
  %117 = getelementptr inbounds nuw %struct.SN_env, ptr %116, i32 0, i32 3
  %118 = load i32, ptr %117, align 8
  %119 = call i32 @skip_b_utf8(ptr noundef %112, i32 noundef %115, i32 noundef %118, i32 noundef 1)
  store i32 %119, ptr %7, align 4
  %120 = load i32, ptr %7, align 4
  %121 = icmp slt i32 %120, 0
  br i1 %121, label %122, label %123

122:                                              ; preds = %109
  store i32 0, ptr %2, align 4
  store i32 1, ptr %6, align 4
  br label %127

123:                                              ; preds = %109
  %124 = load i32, ptr %7, align 4
  %125 = load ptr, ptr %3, align 8
  %126 = getelementptr inbounds nuw %struct.SN_env, ptr %125, i32 0, i32 1
  store i32 %124, ptr %126, align 8
  store i32 0, ptr %6, align 4
  br label %127

127:                                              ; preds = %123, %122
  call void @llvm.lifetime.end.p0(i64 4, ptr %7) #3
  %128 = load i32, ptr %6, align 4
  switch i32 %128, label %147 [
    i32 0, label %129
    i32 1, label %145
  ]

129:                                              ; preds = %127
  %130 = load ptr, ptr %3, align 8
  %131 = getelementptr inbounds nuw %struct.SN_env, ptr %130, i32 0, i32 1
  %132 = load i32, ptr %131, align 8
  %133 = load ptr, ptr %3, align 8
  %134 = getelementptr inbounds nuw %struct.SN_env, ptr %133, i32 0, i32 4
  store i32 %132, ptr %134, align 4
  call void @llvm.lifetime.start.p0(i64 4, ptr %8) #3
  %135 = load ptr, ptr %3, align 8
  %136 = call i32 @slice_del(ptr noundef %135)
  store i32 %136, ptr %8, align 4
  %137 = load i32, ptr %8, align 4
  %138 = icmp slt i32 %137, 0
  br i1 %138, label %139, label %141

139:                                              ; preds = %129
  %140 = load i32, ptr %8, align 4
  store i32 %140, ptr %2, align 4
  store i32 1, ptr %6, align 4
  br label %142

141:                                              ; preds = %129
  store i32 0, ptr %6, align 4
  br label %142

142:                                              ; preds = %141, %139
  call void @llvm.lifetime.end.p0(i64 4, ptr %8) #3
  %143 = load i32, ptr %6, align 4
  switch i32 %143, label %147 [
    i32 0, label %144
    i32 1, label %145
  ]

144:                                              ; preds = %142
  store i32 1, ptr %2, align 4
  br label %145

145:                                              ; preds = %144, %142, %127, %107
  %146 = load i32, ptr %2, align 4
  ret i32 %146

147:                                              ; preds = %142, %127, %107
  unreachable
}