; Function Attrs: nounwind uwtable
define internal fastcc range(i32 -2147483648, 2) i32 @r_consonant_pair(ptr noundef %0) unnamed_addr #0 {
  %2 = getelementptr inbounds nuw i8, ptr %0, i64 12
  %3 = load i32, ptr %2, align 4
  %4 = getelementptr inbounds nuw i8, ptr %0, i64 8
  %5 = load i32, ptr %4, align 8
  %.neg = sub i32 %5, %3
  %6 = getelementptr inbounds nuw i8, ptr %0, i64 40
  %7 = load ptr, ptr %6, align 8
  %8 = getelementptr inbounds nuw i8, ptr %7, i64 4
  %9 = load i32, ptr %8, align 4
  %10 = icmp slt i32 %5, %9
  br i1 %10, label %36, label %11

11:                                               ; preds = %1
  %12 = getelementptr inbounds nuw i8, ptr %0, i64 16
  %13 = load i32, ptr %12, align 8
  store i32 %9, ptr %12, align 8
  %14 = getelementptr inbounds nuw i8, ptr %0, i64 24
  store i32 %5, ptr %14, align 8
  %15 = add i32 %5, -1
  %.not = icmp sgt i32 %15, %9
  br i1 %.not, label %16, label %21

16:                                               ; preds = %11
  %17 = load ptr, ptr %0, align 8
  %18 = sext i32 %15 to i64
  %19 = getelementptr inbounds i8, ptr %17, i64 %18
  %20 = load i8, ptr %19, align 1
  switch i8 %20, label %21 [
    i8 100, label %22
    i8 116, label %22
  ]

21:                                               ; preds = %16, %11
  store i32 %13, ptr %12, align 8
  br label %36

22:                                               ; preds = %16, %16
  %23 = tail call i32 @find_among_b(ptr noundef nonnull %0, ptr noundef nonnull @a_1, i32 noundef 4) #3
  %.not52 = icmp eq i32 %23, 0
  br i1 %.not52, label %24, label %25

24:                                               ; preds = %22
  store i32 %13, ptr %12, align 8
  br label %36

25:                                               ; preds = %22
  %26 = load i32, ptr %4, align 8
  %27 = getelementptr inbounds nuw i8, ptr %0, i64 20
  store i32 %26, ptr %27, align 4
  store i32 %13, ptr %12, align 8
  %28 = load i32, ptr %2, align 4
  %29 = add i32 %28, %.neg
  store i32 %29, ptr %4, align 8
  %30 = load ptr, ptr %0, align 8
  %31 = tail call i32 @skip_b_utf8(ptr noundef %30, i32 noundef %29, i32 noundef %13, i32 noundef 1) #3
  %32 = icmp slt i32 %31, 0
  br i1 %32, label %36, label %33

33:                                               ; preds = %25
  store i32 %31, ptr %4, align 8
  store i32 %31, ptr %27, align 4
  %34 = tail call i32 @slice_del(ptr noundef nonnull %0) #3
  %35 = icmp sgt i32 %34, -1
  %. = tail call i32 @llvm.smin.i32(i32 %34, i32 0)
  %spec.select = select i1 %35, i32 1, i32 %.
  br label %36

36:                                               ; preds = %1, %24, %21, %25, %33
  %.1 = phi i32 [ %spec.select, %33 ], [ 0, %25 ], [ 0, %21 ], [ 0, %24 ], [ 0, %1 ]
  ret i32 %.1
}